Certificate:
    Data:
        Version: 3 (0x2)
        Serial Number: 4 (0x4)
        Signature Algorithm: sha256WithRSAEncryption
        Issuer: O=Test Org, CN=Test Org Provisioning CA Development
        Validity
            Not Before: Jan  1 00:00:00 1970 GMT
            Not After : Dec 31 23:59:59 9999 GMT
        Subject: O=Test Org, CN=Test Org XKU codeSigning
        Subject Public Key Info:
            Public Key Algorithm: rsaEncryption
                Public-Key: (2048 bit)
                Modulus:
                    00:d6:73:1a:6a:b2:09:d4:3d:e0:01:d6:ab:1b:bc:
                    3e:2a:58:0b:c2:90:fe:21:8c:2a:b0:0b:97:e7:ed:
                    8c:49:0d:38:4d:83:5b:07:d0:5d:2d:cf:d5:43:25:
                    8b:d1:c4:9a:d8:60:9b:be:0f:c1:9e:3b:a0:1a:32:
                    2f:19:f0:1c:bb:83:66:9c:ca:98:cb:7d:1c:62:0a:
                    86:ca:4f:7e:66:43:05:59:63:ed:f0:46:d0:be:3d:
                    4b:52:30:e3:f0:09:f0:6a:ed:1f:7d:ea:49:da:a0:
                    3a:f7:b3:28:e3:72:30:bb:0b:12:71:84:82:65:6c:
                    b9:be:f6:85:a3:b8:3e:3b:27:b6:c5:54:18:1a:07:
                    08:e5:dd:0d:f7:ac:6e:04:71:d8:e2:30:30:b4:d5:
                    e4:e3:b6:d7:fa:77:4d:99:9a:93:c7:bd:30:2f:d4:
                    e2:10:61:4e:cc:56:e0:9e:85:4b:4d:fb:74:b9:f5:
                    5f:49:33:99:64:ff:b7:d2:c5:a2:71:d2:70:2b:c1:
                    20:a6:82:5f:14:4b:37:f8:21:d2:46:e2:00:63:91:
                    09:69:f0:77:2f:bc:00:56:bd:a2:48:9f:35:28:88:
                    7a:0e:04:e0:ee:6c:ce:14:31:eb:ce:b3:0e:f2:75:
                    b0:97:fa:4d:3e:cc:1c:43:aa:99:42:76:12:d3:b5:
                    c3:99
                Exponent: 65537 (0x10001)
        X509v3 extensions:
            X509v3 Subject Key Identifier: 
                0C:C7:9B:EB:E9:37:37:E5:06:23:26:54:FF:0C:69:45:68:81:50:DF
            X509v3 Authority Key Identifier: 
                keyid:BD:25:7E:4B:06:B1:2E:2A:0F:10:CB:D1:7A:E8:FF:4B:DF:A5:19:D6
                DirName:/O=Test Org/CN=Test Org Provisioning CA Root
                serial:04
            X509v3 Basic Constraints: 
                CA:FALSE
            X509v3 Key Usage: critical
                Digital Signature, Key Encipherment
            X509v3 Extended Key Usage: critical
                Code Signing
    Signature Algorithm: sha256WithRSAEncryption
    Signature Value:
        60:a9:4b:da:af:60:af:a1:6d:e7:77:89:ff:74:f8:21:3a:02:
        e6:af:20:a3:c3:47:4d:8e:96:0b:09:3b:fa:a6:93:6b:c5:47:
        7d:06:37:9a:6e:2d:54:a0:3e:40:88:b5:a7:e3:61:50:b6:f4:
        90:74:38:c6:20:13:f4:03:5c:c4:cf:4e:0a:c3:9d:0f:b3:ec:
        f8:ea:65:55:83:37:a6:c6:fb:5e:2e:fe:7a:61:13:67:f6:70:
        fa:c7:3b:c4:4f:51:6a:34:29:92:f7:6e:2c:7a:d6:88:49:4f:
        27:96:03:4a:83:ab:b1:f5:b3:97:03:a9:c1:b0:c3:05:42:69:
        34:73:99:02:48:25:2e:af:00:19:39:0c:43:72:08:04:49:d3:
        aa:c2:2e:e6:13:b9:f3:1a:39:b7:74:9d:0d:2a:5d:7c:04:24:
        00:43:7d:69:50:47:5d:40:0d:3c:67:b3:11:67:24:4a:cf:44:
        17:11:8e:ff:80:ba:7d:1f:37:d9:e3:55:b0:c4:e7:26:28:a5:
        b8:01:9c:cc:b6:3b:59:e9:b8:06:ff:ee:e1:53:14:3d:84:76:
        b3:f8:16:48:c2:a4:ae:db:db:d5:c7:c0:25:d0:19:8a:4e:7e:
        a5:7e:32:f5:04:19:bc:6c:f7:c8:ea:61:19:d9:5d:d3:ba:9e:
        35:ac:eb:68
-----BEGIN CERTIFICATE-----
MIIDsDCCApigAwIBAgIBBDANBgkqhkiG9w0BAQsFADBCMREwDwYDVQQKDAhUZXN0
IE9yZzEtMCsGA1UEAwwkVGVzdCBPcmcgUHJvdmlzaW9uaW5nIENBIERldmVsb3Bt
ZW50MCAXDTcwMDEwMTAwMDAwMFoYDzk5OTkxMjMxMjM1OTU5WjA2MREwDwYDVQQK
DAhUZXN0IE9yZzEhMB8GA1UEAwwYVGVzdCBPcmcgWEtVIGNvZGVTaWduaW5nMIIB
IjANBgkqhkiG9w0BAQEFAAOCAQ8AMIIBCgKCAQEA1nMaarIJ1D3gAdarG7w+KlgL
wpD+IYwqsAuX5+2MSQ04TYNbB9BdLc/VQyWL0cSa2GCbvg/BnjugGjIvGfAcu4Nm
nMqYy30cYgqGyk9+ZkMFWWPt8EbQvj1LUjDj8Anwau0ffepJ2qA697Mo43IwuwsS
cYSCZWy5vvaFo7g+Oye2xVQYGgcI5d0N96xuBHHY4jAwtNXk47bX+ndNmZqTx70w
L9TiEGFOzFbgnoVLTft0ufVfSTOZZP+30sWicdJwK8EgpoJfFEs3+CHSRuIAY5EJ
afB3L7wAVr2iSJ81KIh6DgTg7mzOFDHrzrMO8nWwl/pNPswcQ6qZQnYS07XDmQID
AQABo4G6MIG3MB0GA1UdDgQWBBQMx5vr6Tc35QYjJlT/DGlFaIFQ3zBjBgNVHSME
XDBagBS9JX5LBrEuKg8Qy9F66P9L36UZ1qE/pD0wOzERMA8GA1UECgwIVGVzdCBP
cmcxJjAkBgNVBAMMHVRlc3QgT3JnIFByb3Zpc2lvbmluZyBDQSBSb290ggEEMAkG
A1UdEwQCMAAwDgYDVR0PAQH/BAQDAgWgMBYGA1UdJQEB/wQMMAoGCCsGAQUFBwMD
MA0GCSqGSIb3DQEBCwUAA4IBAQBgqUvar2CvoW3nd4n/dPghOgLmryCjw0dNjpYL
CTv6ppNrxUd9Bjeabi1UoD5AiLWn42FQtvSQdDjGIBP0A1zEz04Kw50Ps+z46mVV
gzemxvteLv56YRNn9nD6xzvET1FqNCmS924setaISU8nlgNKg6ux9bOXA6nBsMMF
Qmk0c5kCSCUurwAZOQxDcggESdOqwi7mE7nzGjm3dJ0NKl18BCQAQ31pUEddQA08
Z7MRZyRKz0QXEY7/gLp9HzfZ41WwxOcmKKW4AZzMtjtZ6bgG/+7hUxQ9hHaz+BZI
wqSu29vVx8Al0BmKTn6lfjL1BBm8bPfI6mEZ2V3Tup41rOto
-----END CERTIFICATE-----
