Certificate:
    Data:
        Version: 3 (0x2)
        Serial Number: 5 (0x5)
        Signature Algorithm: sha256WithRSAEncryption
        Issuer: O=Test Org, CN=Test Org Provisioning CA Development
        Validity
            Not Before: Jan  1 00:00:00 1970 GMT
            Not After : Dec 31 23:59:59 9999 GMT
        Subject: O=Test Org, CN=Test Org XKU codeSigning Compat
        Subject Public Key Info:
            Public Key Algorithm: rsaEncryption
                Public-Key: (2048 bit)
                Modulus:
                    00:b6:94:5b:ca:dc:38:17:e5:0e:ac:70:62:fa:60:
                    1c:67:8c:ee:17:03:c1:93:46:2d:c4:2a:6c:3d:44:
                    9d:ae:36:78:05:a8:3c:ca:27:e1:ad:18:12:51:45:
                    a5:1e:37:5f:90:3c:7b:38:55:ee:a6:6b:79:e0:ee:
                    44:98:73:04:74:d0:58:cb:60:62:69:07:3f:a0:d8:
                    85:96:eb:6c:38:29:88:72:f0:d3:0d:3b:cf:38:65:
                    70:02:a5:8a:42:b3:ec:ec:ae:ec:80:8e:57:69:66:
                    be:5e:98:7c:14:b6:43:60:f0:bd:f7:5f:ef:57:85:
                    10:57:55:83:55:6b:4c:42:74:92:c4:73:47:d0:fe:
                    d8:96:f8:75:a0:9d:aa:41:17:d5:87:ec:11:52:c0:
                    23:7d:ef:f5:7b:91:48:bb:ba:2c:9e:fd:d4:2b:9a:
                    6c:62:af:da:af:67:8e:4a:61:63:fe:3d:19:de:6d:
                    db:89:c9:cb:91:ea:2f:8b:ef:a3:87:e8:fa:5f:41:
                    f9:76:cf:46:95:7b:1a:ac:c2:40:1f:62:91:b5:84:
                    c6:cd:52:bf:6d:8e:eb:c4:44:3c:ff:ef:2e:fa:d8:
                    38:44:18:c9:07:c8:bd:a3:83:5d:f1:c1:62:e5:cc:
                    4a:fc:ee:bd:e2:02:65:8a:94:34:1d:56:2c:29:bb:
                    b1:49
                Exponent: 65537 (0x10001)
        X509v3 extensions:
            X509v3 Subject Key Identifier: 
                24:E8:94:77:B6:4B:39:FF:8F:E0:05:92:F7:14:9D:D8:35:56:67:77
            X509v3 Authority Key Identifier: 
                keyid:E8:83:B2:EE:77:3D:83:CE:84:FE:6E:C1:08:19:C5:E1:FD:E1:08:FD
                DirName:/O=Test Org/CN=Test Org Provisioning CA Root
                serial:04
            X509v3 Basic Constraints: 
                CA:FALSE
            X509v3 Extended Key Usage: critical
                Code Signing
    Signature Algorithm: sha256WithRSAEncryption
    Signature Value:
        a6:70:9e:51:f4:ba:1b:78:ec:5d:ba:51:5e:7d:fa:dd:e6:43:
        99:a1:53:64:2d:95:69:8a:37:9b:98:d9:71:19:cc:e9:eb:da:
        ca:e5:71:a3:4e:51:64:5a:60:39:77:cf:ce:79:b7:04:be:e2:
        ce:51:ce:58:2e:61:2e:78:90:9b:f5:4d:40:a3:f2:04:12:7f:
        3e:c5:56:27:c7:a5:cc:6a:09:e4:13:0a:52:f5:3d:59:b9:45:
        3a:24:c8:3b:16:8c:91:14:6b:a3:2a:8a:a9:4f:34:a9:80:c5:
        80:f8:8e:1f:54:75:96:cf:84:c5:0a:b9:16:38:4f:e0:87:00:
        fd:09:68:f3:3e:40:b2:e5:2c:11:bc:d0:c1:fa:47:08:44:84:
        a2:a9:c5:63:f7:94:c4:d5:af:ef:91:e8:6b:b7:97:73:81:d5:
        59:f6:ff:e2:6a:c6:92:66:11:88:f6:72:09:a7:9e:b9:2e:98:
        58:78:12:f7:c1:34:d2:80:b1:88:ca:40:b1:40:5f:b6:0c:9c:
        5a:0a:3b:61:00:bc:9f:9d:6a:f9:a5:b7:b6:8c:60:13:87:48:
        a4:9e:9d:72:57:10:75:2d:ec:b9:b2:60:a3:1b:dd:cb:6b:2a:
        36:17:aa:08:fb:cd:ca:49:ed:9f:66:bb:71:3b:aa:5e:4a:3c:
        6e:75:6e:10
-----BEGIN CERTIFICATE-----
MIIDpzCCAo+gAwIBAgIBBTANBgkqhkiG9w0BAQsFADBCMREwDwYDVQQKDAhUZXN0
IE9yZzEtMCsGA1UEAwwkVGVzdCBPcmcgUHJvdmlzaW9uaW5nIENBIERldmVsb3Bt
ZW50MCAXDTcwMDEwMTAwMDAwMFoYDzk5OTkxMjMxMjM1OTU5WjA9MREwDwYDVQQK
DAhUZXN0IE9yZzEoMCYGA1UEAwwfVGVzdCBPcmcgWEtVIGNvZGVTaWduaW5nIENv
bXBhdDCCASIwDQYJKoZIhvcNAQEBBQADggEPADCCAQoCggEBALaUW8rcOBflDqxw
YvpgHGeM7hcDwZNGLcQqbD1Ena42eAWoPMon4a0YElFFpR43X5A8ezhV7qZreeDu
RJhzBHTQWMtgYmkHP6DYhZbrbDgpiHLw0w07zzhlcAKlikKz7Oyu7ICOV2lmvl6Y
fBS2Q2Dwvfdf71eFEFdVg1VrTEJ0ksRzR9D+2Jb4daCdqkEX1YfsEVLAI33v9XuR
SLu6LJ791CuabGKv2q9njkphY/49Gd5t24nJy5HqL4vvo4fo+l9B+XbPRpV7GqzC
QB9ikbWExs1Sv22O68REPP/vLvrYOEQYyQfIvaODXfHBYuXMSvzuveICZYqUNB1W
LCm7sUkCAwEAAaOBqjCBpzAdBgNVHQ4EFgQUJOiUd7ZLOf+P4AWS9xSd2DVWZ3cw
YwYDVR0jBFwwWoAU6IOy7nc9g86E/m7BCBnF4f3hCP2hP6Q9MDsxETAPBgNVBAoM
CFRlc3QgT3JnMSYwJAYDVQQDDB1UZXN0IE9yZyBQcm92aXNpb25pbmcgQ0EgUm9v
dIIBBDAJBgNVHRMEAjAAMBYGA1UdJQEB/wQMMAoGCCsGAQUFBwMDMA0GCSqGSIb3
DQEBCwUAA4IBAQCmcJ5R9LobeOxdulFeffrd5kOZoVNkLZVpijebmNlxGczp69rK
5XGjTlFkWmA5d8/OebcEvuLOUc5YLmEueJCb9U1Ao/IEEn8+xVYnx6XMagnkEwpS
9T1ZuUU6JMg7FoyRFGujKoqpTzSpgMWA+I4fVHWWz4TFCrkWOE/ghwD9CWjzPkCy
5SwRvNDB+kcIRISiqcVj95TE1a/vkehrt5dzgdVZ9v/iasaSZhGI9nIJp565LphY
eBL3wTTSgLGIykCxQF+2DJxaCjthALyfnWr5pbe2jGATh0iknp1yVxB1Ley5smCj
G93Layo2F6oI+83KSe2fZrtxO6peSjxudW4Q
-----END CERTIFICATE-----
