Certificate:
    Data:
        Version: 3 (0x2)
        Serial Number: 4 (0x4)
        Signature Algorithm: sha256WithRSAEncryption
        Issuer: O=Test Org, CN=Test Org Provisioning CA Development
        Validity
            Not Before: Jan  1 00:00:00 1970 GMT
            Not After : Dec 31 23:59:59 9999 GMT
        Subject: O=Test Org, CN=Test Org XKU codeSigning
        Subject Public Key Info:
            Public Key Algorithm: rsaEncryption
                Public-Key: (2048 bit)
                Modulus:
                    00:b0:9b:a7:19:74:a0:e2:40:69:b2:6e:ac:fa:1f:
                    ff:09:ea:b3:22:c4:8d:3f:9f:08:1f:65:0b:c9:be:
                    01:ab:62:f4:01:dc:38:e9:73:eb:b9:5d:25:02:21:
                    48:3e:d5:87:80:98:fb:8a:73:45:37:4a:27:1d:5b:
                    e1:47:fe:bc:52:dc:33:1d:c3:16:4f:77:52:e7:92:
                    66:66:70:59:ee:ee:00:5e:41:a3:a0:e7:94:50:d8:
                    a9:f8:9c:4d:78:f6:e2:71:d9:38:60:e6:c2:ca:c2:
                    7d:b9:2b:95:d6:f1:30:fe:3a:0c:64:ab:b2:ce:2e:
                    19:1b:0c:4f:03:4d:74:23:be:89:cf:31:dd:b2:f4:
                    cc:98:3f:54:b5:e1:00:35:39:0a:4a:aa:da:78:c6:
                    82:88:cc:35:b7:99:0e:03:8b:f1:37:b9:61:e8:46:
                    ba:cd:bd:33:ac:ef:a6:de:45:01:d0:2c:02:11:fe:
                    cb:c6:8b:f4:4a:32:37:60:c3:8f:89:29:df:fb:8a:
                    0d:b1:3f:dc:d0:3c:32:91:b7:20:a4:64:d4:88:13:
                    70:a8:04:43:2e:03:92:e9:dc:f9:00:6b:e5:49:79:
                    f3:6e:0b:e5:23:b0:ac:c4:fe:17:55:3b:9d:cc:cc:
                    50:3c:d8:dc:8c:f7:13:b8:35:fd:d3:c2:ae:f8:b8:
                    73:55
                Exponent: 65537 (0x10001)
        X509v3 extensions:
            X509v3 Subject Key Identifier: 
                11:DF:71:7A:F7:78:D6:BE:24:85:43:97:CF:E6:DA:C0:E9:38:CA:B4
            X509v3 Authority Key Identifier: 
                keyid:E8:83:B2:EE:77:3D:83:CE:84:FE:6E:C1:08:19:C5:E1:FD:E1:08:FD
                DirName:/O=Test Org/CN=Test Org Provisioning CA Root
                serial:04
            X509v3 Basic Constraints: 
                CA:FALSE
            X509v3 Key Usage: critical
                Digital Signature, Key Encipherment
            X509v3 Extended Key Usage: critical
                Code Signing
    Signature Algorithm: sha256WithRSAEncryption
    Signature Value:
        56:9a:9b:34:00:67:ae:85:b3:b1:b9:51:6c:1f:f7:cd:1c:7f:
        ba:ab:a3:7c:c3:68:e5:a5:5e:33:13:36:ed:66:5d:f4:81:c6:
        9e:49:1b:c2:0b:e2:2b:af:9e:0d:a5:32:a3:c5:c2:9c:92:25:
        68:36:06:ce:73:b2:b9:85:d7:24:51:ff:df:42:05:4a:df:6f:
        0d:a4:6d:d1:e7:8f:fe:92:ed:20:c3:74:5e:f7:a3:c8:97:a5:
        34:16:94:50:5c:58:25:9b:44:5b:24:71:26:a0:c5:72:a7:35:
        1e:b5:33:f7:45:5c:2c:df:97:02:56:2d:e2:e8:86:b9:3b:d6:
        8b:da:15:b2:69:32:58:86:c0:04:27:38:60:4d:b7:c2:85:4c:
        c1:1a:da:f1:be:34:fa:91:30:ee:e8:c4:6e:f3:9f:e0:b3:07:
        ee:95:7b:68:2a:c8:a8:a5:3b:98:c4:80:ba:2d:70:5c:10:b9:
        85:2c:a6:3e:7a:36:6c:d4:d7:ce:f0:a5:55:9c:b0:53:2a:65:
        e7:35:f2:6a:e5:a5:bc:ae:f5:fd:c1:e6:3b:ad:6b:af:b2:9c:
        0b:53:77:61:c6:92:fa:a0:e3:a7:08:23:ed:59:d8:ca:e8:a3:
        35:3f:c5:ee:1f:e8:c1:80:ab:58:c0:eb:7e:08:62:cb:4f:73:
        3d:52:34:d0
-----BEGIN CERTIFICATE-----
MIIDsDCCApigAwIBAgIBBDANBgkqhkiG9w0BAQsFADBCMREwDwYDVQQKDAhUZXN0
IE9yZzEtMCsGA1UEAwwkVGVzdCBPcmcgUHJvdmlzaW9uaW5nIENBIERldmVsb3Bt
ZW50MCAXDTcwMDEwMTAwMDAwMFoYDzk5OTkxMjMxMjM1OTU5WjA2MREwDwYDVQQK
DAhUZXN0IE9yZzEhMB8GA1UEAwwYVGVzdCBPcmcgWEtVIGNvZGVTaWduaW5nMIIB
IjANBgkqhkiG9w0BAQEFAAOCAQ8AMIIBCgKCAQEAsJunGXSg4kBpsm6s+h//Ceqz
IsSNP58IH2ULyb4Bq2L0Adw46XPruV0lAiFIPtWHgJj7inNFN0onHVvhR/68Utwz
HcMWT3dS55JmZnBZ7u4AXkGjoOeUUNip+JxNePbicdk4YObCysJ9uSuV1vEw/joM
ZKuyzi4ZGwxPA010I76JzzHdsvTMmD9UteEANTkKSqraeMaCiMw1t5kOA4vxN7lh
6Ea6zb0zrO+m3kUB0CwCEf7Lxov0SjI3YMOPiSnf+4oNsT/c0DwykbcgpGTUiBNw
qARDLgOS6dz5AGvlSXnzbgvlI7CsxP4XVTudzMxQPNjcjPcTuDX908Ku+LhzVQID
AQABo4G6MIG3MB0GA1UdDgQWBBQR33F693jWviSFQ5fP5trA6TjKtDBjBgNVHSME
XDBagBTog7Ludz2DzoT+bsEIGcXh/eEI/aE/pD0wOzERMA8GA1UECgwIVGVzdCBP
cmcxJjAkBgNVBAMMHVRlc3QgT3JnIFByb3Zpc2lvbmluZyBDQSBSb290ggEEMAkG
A1UdEwQCMAAwDgYDVR0PAQH/BAQDAgWgMBYGA1UdJQEB/wQMMAoGCCsGAQUFBwMD
MA0GCSqGSIb3DQEBCwUAA4IBAQBWmps0AGeuhbOxuVFsH/fNHH+6q6N8w2jlpV4z
EzbtZl30gcaeSRvCC+Irr54NpTKjxcKckiVoNgbOc7K5hdckUf/fQgVK328NpG3R
54/+ku0gw3Re96PIl6U0FpRQXFglm0RbJHEmoMVypzUetTP3RVws35cCVi3i6Ia5
O9aL2hWyaTJYhsAEJzhgTbfChUzBGtrxvjT6kTDu6MRu85/gswfulXtoKsiopTuY
xIC6LXBcELmFLKY+ejZs1NfO8KVVnLBTKmXnNfJq5aW8rvX9weY7rWuvspwLU3dh
xpL6oOOnCCPtWdjK6KM1P8XuH+jBgKtYwOt+CGLLT3M9UjTQ
-----END CERTIFICATE-----
